
compiled_test_random.elf:     file format elf64-littleriscv


Disassembly of section .text:

0000000000000000 <_start>:
   0:	0010011b          	addiw	sp,zero,1
   4:	01f11113          	slli	sp,sp,0x1f
   8:	00000413          	li	s0,0
   c:	134000ef          	jal	ra,140 <main>
  10:	00000067          	jr	zero # 0 <_start>

0000000000000014 <random>:
  14:	fe010113          	addi	sp,sp,-32
  18:	00813c23          	sd	s0,24(sp)
  1c:	02010413          	addi	s0,sp,32
  20:	00050793          	mv	a5,a0
  24:	fef42623          	sw	a5,-20(s0)
  28:	fec42783          	lw	a5,-20(s0)
  2c:	01f7d79b          	srliw	a5,a5,0x1f
  30:	0007871b          	sext.w	a4,a5
  34:	fec42783          	lw	a5,-20(s0)
  38:	0067d79b          	srliw	a5,a5,0x6
  3c:	0007879b          	sext.w	a5,a5
  40:	00f747b3          	xor	a5,a4,a5
  44:	0007871b          	sext.w	a4,a5
  48:	fec42783          	lw	a5,-20(s0)
  4c:	0047d79b          	srliw	a5,a5,0x4
  50:	0007879b          	sext.w	a5,a5
  54:	00f747b3          	xor	a5,a4,a5
  58:	0007871b          	sext.w	a4,a5
  5c:	fec42783          	lw	a5,-20(s0)
  60:	0027d79b          	srliw	a5,a5,0x2
  64:	0007879b          	sext.w	a5,a5
  68:	00f747b3          	xor	a5,a4,a5
  6c:	0007871b          	sext.w	a4,a5
  70:	fec42783          	lw	a5,-20(s0)
  74:	0017d79b          	srliw	a5,a5,0x1
  78:	0007879b          	sext.w	a5,a5
  7c:	00f747b3          	xor	a5,a4,a5
  80:	0007871b          	sext.w	a4,a5
  84:	fec42783          	lw	a5,-20(s0)
  88:	00e7c7b3          	xor	a5,a5,a4
  8c:	0007879b          	sext.w	a5,a5
  90:	01f7979b          	slliw	a5,a5,0x1f
  94:	0007871b          	sext.w	a4,a5
  98:	fec42783          	lw	a5,-20(s0)
  9c:	0017d79b          	srliw	a5,a5,0x1
  a0:	0007879b          	sext.w	a5,a5
  a4:	00f767b3          	or	a5,a4,a5
  a8:	fef42623          	sw	a5,-20(s0)
  ac:	fec42783          	lw	a5,-20(s0)
  b0:	00078513          	mv	a0,a5
  b4:	01813403          	ld	s0,24(sp)
  b8:	02010113          	addi	sp,sp,32
  bc:	00008067          	ret

00000000000000c0 <random_n>:
  c0:	fd010113          	addi	sp,sp,-48
  c4:	02113423          	sd	ra,40(sp)
  c8:	02813023          	sd	s0,32(sp)
  cc:	03010413          	addi	s0,sp,48
  d0:	00050793          	mv	a5,a0
  d4:	00058713          	mv	a4,a1
  d8:	fcf42e23          	sw	a5,-36(s0)
  dc:	00070793          	mv	a5,a4
  e0:	fcf42c23          	sw	a5,-40(s0)
  e4:	fdc42783          	lw	a5,-36(s0)
  e8:	fef42423          	sw	a5,-24(s0)
  ec:	fe042623          	sw	zero,-20(s0)
  f0:	0240006f          	j	114 <random_n+0x54>
  f4:	fe842783          	lw	a5,-24(s0)
  f8:	00078513          	mv	a0,a5
  fc:	f19ff0ef          	jal	ra,14 <random>
 100:	00050793          	mv	a5,a0
 104:	fef42423          	sw	a5,-24(s0)
 108:	fec42783          	lw	a5,-20(s0)
 10c:	0017879b          	addiw	a5,a5,1
 110:	fef42623          	sw	a5,-20(s0)
 114:	fec42703          	lw	a4,-20(s0)
 118:	fd842783          	lw	a5,-40(s0)
 11c:	0007071b          	sext.w	a4,a4
 120:	0007879b          	sext.w	a5,a5
 124:	fcf768e3          	bltu	a4,a5,f4 <random_n+0x34>
 128:	fe842783          	lw	a5,-24(s0)
 12c:	00078513          	mv	a0,a5
 130:	02813083          	ld	ra,40(sp)
 134:	02013403          	ld	s0,32(sp)
 138:	03010113          	addi	sp,sp,48
 13c:	00008067          	ret

0000000000000140 <main>:
 140:	fe010113          	addi	sp,sp,-32
 144:	00113c23          	sd	ra,24(sp)
 148:	00813823          	sd	s0,16(sp)
 14c:	02010413          	addi	s0,sp,32
 150:	123457b7          	lui	a5,0x12345
 154:	6787879b          	addiw	a5,a5,1656
 158:	fef42623          	sw	a5,-20(s0)
 15c:	06400793          	li	a5,100
 160:	fef42423          	sw	a5,-24(s0)
 164:	fec42783          	lw	a5,-20(s0)
 168:	fe842703          	lw	a4,-24(s0)
 16c:	00070593          	mv	a1,a4
 170:	00078513          	mv	a0,a5
 174:	f4dff0ef          	jal	ra,c0 <random_n>
 178:	00050793          	mv	a5,a0
 17c:	0007879b          	sext.w	a5,a5
 180:	00078713          	mv	a4,a5
 184:	0f1ad7b7          	lui	a5,0xf1ad
 188:	a1978793          	addi	a5,a5,-1511 # f1aca19 <__global_pointer$+0xf1ab069>
 18c:	40f707b3          	sub	a5,a4,a5
 190:	00f037b3          	snez	a5,a5
 194:	0ff7f793          	andi	a5,a5,255
 198:	0007879b          	sext.w	a5,a5
 19c:	00078513          	mv	a0,a5
 1a0:	01813083          	ld	ra,24(sp)
 1a4:	01013403          	ld	s0,16(sp)
 1a8:	02010113          	addi	sp,sp,32
 1ac:	00008067          	ret
